; Function Attrs: mustprogress uwtable
define noundef zeroext i1 @_ZN32pxrInternal_v0_24__pxrReserved__16UsdGeomXformable14GetTimeSamplesERKSt6vectorINS_14UsdGeomXformOpESaIS2_EEPS1_IdSaIdEE(ptr nocapture noundef nonnull readonly align 8 dereferenceable(24) %0, ptr noundef %1) local_unnamed_addr #0 align 2 {
  %3 = alloca %"class.pxrInternal_v0_24__pxrReserved__::GfInterval", align 8
  store double 0xFFF0000000000000, ptr %3, align 8, !alias.scope !49
  %4 = getelementptr inbounds nuw i8, ptr %3, i64 8
  store i8 0, ptr %4, align 8, !alias.scope !49
  %5 = getelementptr inbounds nuw i8, ptr %3, i64 16
  store double 0x7FF0000000000000, ptr %5, align 8, !alias.scope !49
  %6 = getelementptr inbounds i8, ptr %3, i64 24
  store i8 0, ptr %6, align 8, !alias.scope !49
  %7 = call noundef zeroext i1 @_ZN32pxrInternal_v0_24__pxrReserved__16UsdGeomXformable24GetTimeSamplesInIntervalERKSt6vectorINS_14UsdGeomXformOpESaIS2_EERKNS_10GfIntervalEPS1_IdSaIdEE(ptr noundef nonnull align 8 dereferenceable(24) %0, ptr noundef nonnull align 8 dereferenceable(32) %3, ptr noundef %1)
  ret i1 %7
}